target datalayout = "e-m:e-p270:32:32-p271:32:32-p272:64:64-i64:64-i128:128-f80:128-n8:16:32:64-S128"
target triple = "x86_64-pc-linux-gnu"

@.str.1 = private unnamed_addr constant [11 x i8] c"relcache.c\00", align 1
@.str.86 = private unnamed_addr constant [37 x i8] c"could not remove cache file \22%s\22: %m\00", align 1
@__func__.unlink_initfile = private unnamed_addr constant [16 x i8] c"unlink_initfile\00", align 1

; Function Attrs: nounwind uwtable
define internal void @unlink_initfile(ptr noundef %0, i32 noundef %1) #0 {
  %3 = alloca ptr, align 8
  %4 = alloca i32, align 4
  store ptr %0, ptr %3, align 8
  store i32 %1, ptr %4, align 4
  %5 = load ptr, ptr %3, align 8
  %6 = call i32 @unlink(ptr noundef %5) #11
  %7 = icmp slt i32 %6, 0
  br i1 %7, label %8, label %39

8:                                                ; preds = %2
  %9 = call ptr @__errno_location() #13
  %10 = load i32, ptr %9, align 4
  %11 = icmp ne i32 %10, 2
  br i1 %11, label %12, label %38

12:                                               ; preds = %8
  br label %13

13:                                               ; preds = %12
  %14 = load i32, ptr %4, align 4
  %15 = call i1 @llvm.is.constant.i32(i32 %14)
  br i1 %15, label %16, label %22

16:                                               ; preds = %13
  %17 = load i32, ptr %4, align 4
  %18 = icmp sge i32 %17, 21
  br i1 %18, label %19, label %22

19:                                               ; preds = %16
  %20 = load i32, ptr %4, align 4
  %21 = call zeroext i1 @errstart_cold(i32 noundef %20, ptr noundef null) #12
  br i1 %21, label %25, label %29

22:                                               ; preds = %16, %13
  %23 = load i32, ptr %4, align 4
  %24 = call zeroext i1 @errstart(i32 noundef %23, ptr noundef null)
  br i1 %24, label %25, label %29

25:                                               ; preds = %22, %19
  %26 = call i32 @errcode_for_file_access()
  %27 = load ptr, ptr %3, align 8
  %28 = call i32 (ptr, ...) @errmsg(ptr noundef @.str.86, ptr noundef %27)
  call void @errfinish(ptr noundef @.str.1, i32 noundef 6889, ptr noundef @__func__.unlink_initfile)
  br label %29

29:                                               ; preds = %25, %22, %19
  %30 = load i32, ptr %4, align 4
  %31 = call i1 @llvm.is.constant.i32(i32 %30)
  br i1 %31, label %32, label %36

32:                                               ; preds = %29
  %33 = load i32, ptr %4, align 4
  %34 = icmp sge i32 %33, 21
  br i1 %34, label %35, label %36

35:                                               ; preds = %32
  unreachable

36:                                               ; preds = %32, %29
  br label %37

37:                                               ; preds = %36
  br label %38

38:                                               ; preds = %37, %8
  br label %39

39:                                               ; preds = %38, %2
  ret void
}