; Function Attrs: nounwind uwtable
define internal fastcc void @unlink_initfile(ptr noundef nonnull %0, i32 noundef range(i32 15, 22) %1) unnamed_addr #0 {
  %3 = tail call i32 @unlink(ptr noundef nonnull %0) #13
  %4 = icmp slt i32 %3, 0
  br i1 %4, label %5, label %13

5:                                                ; preds = %2
  %6 = tail call ptr @__errno_location() #16
  %7 = load i32, ptr %6, align 4
  %.not = icmp eq i32 %7, 2
  br i1 %.not, label %13, label %8

8:                                                ; preds = %5
  %9 = tail call zeroext i1 @errstart(i32 noundef %1, ptr noundef null) #13
  br i1 %9, label %10, label %13

10:                                               ; preds = %8
  %11 = tail call i32 @errcode_for_file_access() #13
  %12 = tail call i32 (ptr, ...) @errmsg(ptr noundef nonnull @.str.86, ptr noundef nonnull %0) #13
  tail call void @errfinish(ptr noundef nonnull @.str.1, i32 noundef 6889, ptr noundef nonnull @__func__.unlink_initfile) #13
  br label %13

13:                                               ; preds = %8, %10, %5, %2
  ret void
}